(lp0
(dp1
S'snrs'
p2
(lp3
I0
aI2
aI4
aI6
aI8
aI10
aI12
aI14
aI16
aI18
asS'legend'
p4
I1
sS'bers'
p5
(lp6
F0.24223672413793104
aF0.17387724137931046
aF0.10890482758620687
aF0.0557418965517241
aF0.021204051724137928
aF0.005146810344827586
aF0.000655086206896552
aF3.0258620689655144e-05
aF6.034482758620691e-07
aF0.0
asa(dp7
g2
(lp8
I0
aI2
aI4
aI6
aI8
aI10
aI12
aI14
aI16
aI18
asg4
I2
sg5
(lp9
F0.3346292241379311
aF0.2753006034482757
aF0.20859301724137924
aF0.14109284482758624
aF0.08143568965517238
aF0.037358275862068975
aF0.01236887931034483
aF0.0028187931034482773
aF0.0006256034482758621
aF0.00017
asa(dp10
g2
(lp11
I0
aI2
aI4
aI6
aI8
aI10
aI12
aI14
aI16
aI18
asg4
I3
sg5
(lp12
F0.378621724137931
aF0.32874068965517245
aF0.2683116379310344
aF0.20156551724137933
aF0.13534551724137933
aF0.0778703448275862
aF0.03661749999999999
aF0.013716120689655173
aF0.005109913793103448
aF0.0030038793103448276
asa(dp13
g2
(lp14
I0
aI2
aI4
aI6
aI8
aI10
aI12
aI14
aI16
aI18
asg4
I4
sg5
(lp15
F0.4113654310344828
aF0.3713633620689654
aF0.3193530172413794
aF0.2575994827586207
aF0.19075405172413795
aF0.12669896551724136
aF0.07333629310344823
aF0.03637112068965516
aF0.016197500000000004
aF0.008208103448275862
asa(dp16
g2
(lp17
I0
aI2
aI4
aI6
aI8
aI10
aI12
aI14
aI16
aI18
asg4
I5
sg5
(lp18
F0.45297215517241396
aF0.4296972413793103
aF0.3971468103448275
aF0.35437103448275864
aF0.3014072413793103
aF0.2410429310344827
aF0.1787406034482758
aF0.12175991379310343
aF0.07617431034482756
aF0.04403146551724139
asa(dp19
g2
(lp20
I0
aI2
aI4
aI6
aI8
aI10
aI12
aI14
aI16
aI18
asg4
I6
sg5
(lp21
F0.48884232758620705
aF0.48257887931034477
aF0.4733143103448276
aF0.4601795689655173
aF0.4422618965517242
aF0.4193914655172412
aF0.3917353448275862
aF0.3607174137931035
aF0.32939948275862063
aF0.30148284482758614
asa.