(lp0
(dp1
S'snrs'
p2
(lp3
I0
aI1
aI2
aI3
aI4
aI5
aI6
aI7
aI8
aI9
aI10
aI11
aI12
aI13
aI14
aI15
aI16
aI17
aI18
asS'legend'
p4
S'laur'
p5
sS'bers'
p6
(lp7
F0.23709439655172415
aF0.20450603448275861
aF0.17172931034482758
aF0.1396396551724138
aF0.10928146551724138
aF0.08175474137931034
aF0.057016810344827584
aF0.03745818965517241
aF0.022565948275862068
aF0.012206896551724139
aF0.005953448275862069
aF0.002433189655172414
aF0.0008452586206896552
aF0.00023189655172413794
aF5.689655172413793e-05
aF5.172413793103448e-06
aF0.0
aF4.310344827586207e-07
aF0.0
asa(dp8
g2
g3
sg4
S'proj'
p9
sg6
(lp10
F0.2402219827586207
aF0.20597758620689655
aF0.17119956896551725
aF0.1382616379310345
aF0.10668793103448276
aF0.07821724137931034
aF0.05402198275862069
aF0.03471336206896552
aF0.020652155172413793
aF0.010781465517241379
aF0.005014224137931034
aF0.00196551724137931
aF0.0006163793103448275
aF0.0001603448275862069
aF3.060344827586207e-05
aF3.4482758620689654e-06
aF0.0
aF0.0
aF0.0
asa(dp11
g2
g3
sg4
S'gauss'
p12
sg6
(lp13
F0.23720775862068966
aF0.2042521551724138
aF0.17043060344827587
aF0.1381051724137931
aF0.10657025862068965
aF0.07930560344827586
aF0.054885344827586204
aF0.035557327586206895
aF0.020979741379310343
aF0.011238793103448276
aF0.005352155172413793
aF0.002111206896551724
aF0.0007370689655172414
aF0.00018793103448275862
aF3.189655172413793e-05
aF7.758620689655173e-06
aF0.0
aF0.0
aF0.0
asa(dp14
g2
g3
sg4
S'rrcos'
p15
sg6
(lp16
F0.25339956896551724
aF0.21816336206896553
aF0.1812176724137931
aF0.14464008620689656
aF0.11145646551724138
aF0.0808051724137931
aF0.055098706896551726
aF0.03495775862068966
aF0.020235775862068966
aF0.010364224137931035
aF0.004637068965517241
aF0.0017099137931034483
aF0.0005202586206896552
aF0.00012456896551724138
aF1.8103448275862068e-05
aF3.4482758620689654e-06
aF4.310344827586207e-07
aF0.0
aF0.0
asa.