(dp1
S'diff'
p2
S''
sS'version'
p3
S'v0.9-17-g91d2470\n'
p4
sS'data'
p5
(lp6
(dp7
S'snrs'
p8
(lp9
I0
aI1
aI2
aI3
aI4
aI5
aI6
aI7
aI8
aI9
aI10
aI11
aI12
aI13
aI14
aI15
aI16
aI17
aI18
asS'legend'
p10
I1
sS'bers'
p11
(lp12
F0.25677551785714259
aF0.22086819642857172
aF0.18412628571428585
aF0.14778596428571417
aF0.11348037499999998
aF0.082768928571428688
aF0.056653017857142808
aF0.035950874999999993
aF0.020772499999999992
aF0.010692464285714298
aF0.0047910535714285789
aF0.0017849107142857115
aF0.00053532142857142862
aF0.00012282142857142865
aF2.0696428571428552e-05
aF2.1785714285714253e-06
aF1.2500000000000002e-07
aF0
aF0
asa(dp13
g8
(lp14
I0
aI1
aI2
aI3
aI4
aI5
aI6
aI7
aI8
aI9
aI10
aI11
aI12
aI13
aI14
aI15
aI16
aI17
aI18
asg10
I2
sg11
(lp15
F0.27214348214285716
aF0.23987344642857142
aF0.20637644642857128
aF0.17214289285714299
aF0.13814482142857154
aF0.10521478571428569
aF0.075107321428571419
aF0.049365178571428574
aF0.0293315
aF0.015310696428571439
aF0.0068468928571428674
aF0.0025714821428571392
aF0.00076883928571428567
aF0.00018358928571428557
aF3.1678571428571403e-05
aF3.8392857142857079e-06
aF3.9285714285714297e-07
aF1.7857142857142859e-08
aF0
asa(dp16
g8
(lp17
I0
aI1
aI2
aI3
aI4
aI5
aI6
aI7
aI8
aI9
aI10
aI11
aI12
aI13
aI14
aI15
aI16
aI17
aI18
asg10
I3
sg11
(lp18
F0.28097453571428566
aF0.25029894642857137
aF0.21816405357142829
aF0.18496128571428591
aF0.15132503571428566
aF0.11804669642857141
aF0.086579321428571401
aF0.058590892857142855
aF0.035846714285714308
aF0.019413999999999997
aF0.0090693035714285736
aF0.0035754107142857124
aF0.0011691785714285719
aF0.00031114285714285689
aF6.4339285714285789e-05
aF1.0678571428571429e-05
aF1.9107142857142858e-06
aF1.6071428571428573e-07
aF7.1428571428571437e-08
asa(dp19
g8
(lp20
I0
aI1
aI2
aI3
aI4
aI5
aI6
aI7
aI8
aI9
aI10
aI11
aI12
aI13
aI14
aI15
aI16
aI17
aI18
asg10
I4
sg11
(lp21
F0.27993792857142841
aF0.2494642142857143
aF0.21741378571428568
aF0.18432466071428572
aF0.15082674999999995
aF0.11752728571428574
aF0.085871053571428713
aF0.05777921428571426
aF0.035036892857142857
aF0.018713624999999984
aF0.0085967321428571403
aF0.0033526071428571455
aF0.0010720357142857142
aF0.00027803571428571423
aF5.6875000000000095e-05
aF9.5714285714285766e-06
aF1.214285714285714e-06
aF8.9285714285714302e-08
aF0
asa(dp22
g8
(lp23
I0
aI1
aI2
aI3
aI4
aI5
aI6
aI7
aI8
aI9
aI10
aI11
aI12
aI13
aI14
aI15
aI16
aI17
aI18
asg10
I5
sg11
(lp24
F0.28427158928571417
aF0.25452525000000004
aF0.22296826785714283
aF0.19048021428571416
aF0.15738541071428586
aF0.12399912499999992
aF0.091877732142857188
aF0.062749428571428539
aF0.038685446428571461
aF0.020940250000000028
aF0.0097945535714285669
aF0.0038626964285714258
aF0.0012703749999999987
aF0.00033908928571428512
aF7.5303571428571528e-05
aF1.1821428571428577e-05
aF1.7321428571428562e-06
aF2.4999999999999999e-07
aF0
asa(dp25
g8
(lp26
I0
aI1
aI2
aI3
aI4
aI5
aI6
aI7
aI8
aI9
aI10
aI11
aI12
aI13
aI14
aI15
aI16
aI17
aI18
asg10
I6
sg11
(lp27
F0.28627728571428607
aF0.2567196249999999
aF0.22571771428571424
aF0.19374483928571434
aF0.16109599999999982
aF0.12855698214285727
aF0.097194214285714328
aF0.068437678571428587
aF0.044202749999999978
aF0.025750035714285732
aF0.013345482142857145
aF0.0061303749999999926
aF0.0025011785714285683
aF0.00091374999999999942
aF0.00030360714285714252
aF9.4625000000000105e-05
aF2.9214285714285671e-05
aF1.0250000000000004e-05
aF4.1428571428571452e-06
asasS'title'
p28
S'Entzerrertest'
p29
s.