(dp1
S'diff'
p2
S''
sS'version'
p3
S'v0.9-15-g0c5cded\n'
p4
sS'data'
p5
(lp6
(dp7
S'snrs'
p8
(lp9
I0
aI1
aI2
aI3
aI4
aI5
aI6
aI7
aI8
aI9
aI10
aI11
aI12
aI13
aI14
aI15
aI16
aI17
aI18
asS'legend'
p10
I1
sS'bers'
p11
(lp12
F0.25675980357142847
aF0.22091673214285729
aF0.18413207142857149
aF0.14779526785714284
aF0.11355628571428578
aF0.082768178571428694
aF0.056650107142857127
aF0.035950285714285712
aF0.020810232142857113
aF0.010734500000000025
aF0.0047875714285714379
aF0.0017786428571428536
aF0.00053387500000000115
aF0.00011976785714285725
aF1.9982142857142825e-05
aF2.1249999999999962e-06
aF8.9285714285714302e-08
aF0
aF0
asa(dp13
g8
(lp14
I0
aI1
aI2
aI3
aI4
aI5
aI6
aI7
aI8
aI9
aI10
aI11
aI12
aI13
aI14
aI15
aI16
aI17
aI18
asg10
I2
sg11
(lp15
F0.2723453214285711
aF0.24014767857142855
aF0.20667807142857139
aF0.17242866071428578
aF0.13839366071428572
aF0.1055635535714286
aF0.075441464285714341
aF0.049551267857142853
aF0.029332803571428562
aF0.015308285714285715
aF0.0068647321428571464
aF0.0025545714285714304
aF0.00075941071428571529
aF0.0001761249999999999
aF3.2160714285714232e-05
aF3.3749999999999939e-06
aF5.3571428571428579e-07
aF0
aF0
asa(dp16
g8
(lp17
I0
aI1
aI2
aI3
aI4
aI5
aI6
aI7
aI8
aI9
aI10
aI11
aI12
aI13
aI14
aI15
aI16
aI17
aI18
asg10
I3
sg11
(lp18
F0.28232798214285726
aF0.25196717857142864
aF0.22008269642857164
aF0.18714101785714288
aF0.15375521428571431
aF0.1206525178571429
aF0.0891954107142858
aF0.061019839285714299
aF0.038001035714285751
aF0.021081982142857142
aF0.010238124999999992
aF0.0042671964285714284
aF0.0015120892857142848
aF0.00045412499999999934
aF0.00011864285714285723
aF2.7232142857142822e-05
aF5.1071428571428586e-06
aF7.1428571428571421e-07
aF3.5714285714285718e-08
asa(dp19
g8
(lp20
I0
aI1
aI2
aI3
aI4
aI5
aI6
aI7
aI8
aI9
aI10
aI11
aI12
aI13
aI14
aI15
aI16
aI17
aI18
asg10
I4
sg11
(lp21
F0.27971455357142866
aF0.2492130357142858
aF0.21738385714285718
aF0.18444528571428581
aF0.15080396428571421
aF0.11757573214285717
aF0.086078464285714279
aF0.058053214285714271
aF0.035236553571428582
aF0.018949749999999998
aF0.0088393392857142872
aF0.0034790000000000042
aF0.0011537678571428567
aF0.00031817857142857098
aF7.4375000000000154e-05
aF1.4464285714285715e-05
aF3.0535714285714279e-06
aF6.785714285714285e-07
aF1.4285714285714287e-07
asa(dp22
g8
(lp23
I0
aI1
aI2
aI3
aI4
aI5
aI6
aI7
aI8
aI9
aI10
aI11
aI12
aI13
aI14
aI15
aI16
aI17
aI18
asg10
I5
sg11
(lp24
F0.28422396428571428
aF0.25444401785714288
aF0.22315224999999994
aF0.19072080357142854
aF0.15738414285714292
aF0.12403703571428573
aF0.091992589285714285
aF0.062866803571428639
aF0.038673392857142858
aF0.020993125000000022
aF0.0098253392857142827
aF0.0039108214285714328
aF0.0013068035714285705
aF0.00036146428571428527
aF8.2446428571428661e-05
aF1.6660714285714258e-05
aF3.1428571428571412e-06
aF5.8928571428571424e-07
aF3.5714285714285718e-08
asa(dp25
g8
(lp26
I0
aI1
aI2
aI3
aI4
aI5
aI6
aI7
aI8
aI9
aI10
aI11
aI12
aI13
aI14
aI15
aI16
aI17
aI18
asg10
I6
sg11
(lp27
F0.28801523214285724
aF0.25890037500000035
aF0.22824439285714287
aF0.1965773571428571
aF0.16414067857142856
aF0.13168167857142871
aF0.10007728571428572
aF0.070908535714285764
aF0.046135160714285715
aF0.027083410714285706
aF0.014162357142857152
aF0.0065331785714285735
aF0.0026840357142857143
aF0.00099537499999999973
aF0.00033776785714285712
aF0.0001066785714285714
aF3.2517857142857112e-05
aF1.1107142857142867e-05
aF3.7142857142857125e-06
asasS'title'
p28
S'Entzerrertest'
p29
s.