(lp0
(dp1
S'snrs'
p2
(lp3
I0
aI1
aI2
aI3
aI4
aI5
aI6
aI7
aI8
aI9
aI10
aI11
aI12
aI13
aI14
aI15
aI16
aI17
aI18
aI19
aI20
asS'legend'
p4
I1
sS'bers'
p5
(lp6
F0.18361392857142855
aF0.14714214285714286
aF0.11317151785714281
aF0.082499375
aF0.056551696428571434
aF0.03589169642857143
aF0.02065794642857142
aF0.01062875
aF0.004735
aF0.0017768750000000002
aF0.0005216071428571427
aF0.00011812499999999998
aF1.8928571428571415e-05
aF1.964285714285715e-06
aF1.7857142857142858e-07
aF0.0
aF0.0
aF0.0
aF0.0
aF0.0
aF0.0
asa(dp7
g2
(lp8
I0
aI1
aI2
aI3
aI4
aI5
aI6
aI7
aI8
aI9
aI10
aI11
aI12
aI13
aI14
aI15
aI16
aI17
aI18
aI19
aI20
asg4
I2
sg5
(lp9
F0.20626267857142866
aF0.1720835714285714
aF0.13829446428571432
aF0.10600151785714283
aF0.07663499999999997
aF0.051420892857142866
aF0.031583303571428585
aF0.017316607142857147
aF0.008368928571428574
aF0.00345625
aF0.001192410714285714
aF0.0003313392857142857
aF7.535714285714287e-05
aF1.2053571428571427e-05
aF1.8750000000000003e-06
aF3.5714285714285716e-07
aF0.0
aF0.0
aF0.0
aF0.0
aF0.0
asa(dp10
g2
(lp11
I0
aI1
aI2
aI3
aI4
aI5
aI6
aI7
aI8
aI9
aI10
aI11
aI12
aI13
aI14
aI15
aI16
aI17
aI18
aI19
aI20
asg4
I3
sg5
(lp12
F0.22362160714285714
aF0.19062875
aF0.1570839285714286
aF0.12407250000000002
aF0.09276401785714286
aF0.06486839285714287
aF0.04188910714285715
aF0.024694642857142873
aF0.013021964285714283
aF0.0061649107142857165
aF0.0026278571428571427
aF0.0009795535714285713
aF0.0003016964285714286
aF8.52678571428571e-05
aF1.5892857142857142e-05
aF2.589285714285714e-06
aF2.678571428571429e-07
aF0.0
aF0.0
aF0.0
aF0.0
asa(dp13
g2
(lp14
I0
aI1
aI2
aI3
aI4
aI5
aI6
aI7
aI8
aI9
aI10
aI11
aI12
aI13
aI14
aI15
aI16
aI17
aI18
aI19
aI20
asg4
I4
sg5
(lp15
F0.22796419642857152
aF0.19563089285714283
aF0.16245991071428573
aF0.12903464285714283
aF0.09702491071428566
aF0.06776866071428571
aF0.043435625
aF0.025104732142857144
aF0.013014375000000005
aF0.005907589285714285
aF0.0024043750000000007
aF0.0008601785714285713
aF0.00028026785714285713
aF7.750000000000001e-05
aF2.035714285714286e-05
aF5.892857142857143e-06
aF1.4285714285714286e-06
aF0.0
aF0.0
aF0.0
aF0.0
asa(dp16
g2
(lp17
I0
aI1
aI2
aI3
aI4
aI5
aI6
aI7
aI8
aI9
aI10
aI11
aI12
aI13
aI14
aI15
aI16
aI17
aI18
aI19
aI20
asg4
I5
sg5
(lp18
F0.22911857142857134
aF0.19676330357142863
aF0.16314803571428574
aF0.12985151785714286
aF0.09746660714285714
aF0.0681041964285714
aF0.0433563392857143
aF0.02488812499999999
aF0.012623214285714286
aF0.005665
aF0.002253035714285713
aF0.0008091964285714284
aF0.0002488392857142858
aF7.241071428571431e-05
aF2.035714285714285e-05
aF3.839285714285714e-06
aF8.928571428571429e-07
aF0.0
aF0.0
aF0.0
aF0.0
asa(dp19
g2
(lp20
I0
aI1
aI2
aI3
aI4
aI5
aI6
aI7
aI8
aI9
aI10
aI11
aI12
aI13
aI14
aI15
aI16
aI17
aI18
aI19
aI20
asg4
I6
sg5
(lp21
F0.2329740178571428
aF0.20138428571428574
aF0.1688793749999999
aF0.1363780357142858
aF0.10494821428571426
aF0.075811875
aF0.050695089285714305
aF0.03105723214285714
aF0.017132053571428565
aF0.008563839285714286
aF0.003883482142857142
aF0.001655982142857144
aF0.0006331250000000001
aF0.00025071428571428575
aF0.00010178571428571425
aF4.44642857142857e-05
aF1.669642857142857e-05
aF7.321428571428571e-06
aF2.7678571428571427e-06
aF1.1607142857142857e-06
aF3.5714285714285716e-07
asa.