(lp0
(dp1
S'snrs'
p2
(lp3
I0
aI1
aI2
aI3
aI4
aI5
aI6
aI7
aI8
aI9
aI10
aI11
aI12
aI13
aI14
aI15
aI16
aI17
aI18
asS'legend'
p4
I1
sS'bers'
p5
(lp6
F0.2566904464285715
aF0.22049258928571416
aF0.18395142857142857
aF0.14787187499999996
aF0.11344839285714287
aF0.08270089285714283
aF0.05668946428571428
aF0.035984642857142875
aF0.020785535714285718
aF0.010677767857142856
aF0.004764017857142857
aF0.0017530357142857148
aF0.0005275000000000001
aF0.00012232142857142856
aF2.0803571428571423e-05
aF2.7678571428571427e-06
aF8.928571428571429e-08
aF0.0
aF0.0
asa(dp7
g2
(lp8
I0
aI1
aI2
aI3
aI4
aI5
aI6
aI7
aI8
aI9
aI10
aI11
aI12
aI13
aI14
aI15
aI16
aI17
aI18
asg4
I2
sg5
(lp9
F0.2723708035714284
aF0.24032919642857148
aF0.20674035714285716
aF0.17246964285714292
aF0.13839410714285713
aF0.10550883928571428
aF0.07538946428571429
aF0.04954374999999999
aF0.02932339285714285
aF0.015245714285714283
aF0.006782678571428568
aF0.002550803571428573
aF0.0007727678571428572
aF0.00017401785714285712
aF3.419642857142857e-05
aF4.285714285714286e-06
aF5.357142857142858e-07
aF0.0
aF0.0
asa(dp10
g2
(lp11
I0
aI1
aI2
aI3
aI4
aI5
aI6
aI7
aI8
aI9
aI10
aI11
aI12
aI13
aI14
aI15
aI16
aI17
aI18
asg4
I3
sg5
(lp12
F0.28238035714285714
aF0.25207946428571437
aF0.2205944642857143
aF0.18783883928571435
aF0.1543782142857143
aF0.12121999999999998
aF0.08977973214285714
aF0.06167410714285716
aF0.03846044642857143
aF0.02134937499999999
aF0.010220803571428566
aF0.004162499999999999
aF0.0013700000000000001
aF0.000366517857142857
aF7.669642857142859e-05
aF1.5714285714285712e-05
aF2.6785714285714285e-06
aF3.5714285714285716e-07
aF0.0
asa(dp13
g2
(lp14
I0
aI1
aI2
aI3
aI4
aI5
aI6
aI7
aI8
aI9
aI10
aI11
aI12
aI13
aI14
aI15
aI16
aI17
aI18
asg4
I4
sg5
(lp15
F0.27907125000000005
aF0.24854294642857144
aF0.21621482142857146
aF0.1831796428571429
aF0.1497592857142857
aF0.1167432142857143
aF0.08578973214285714
aF0.05815178571428568
aF0.03566125
aF0.019488571428571435
aF0.009334017857142855
aF0.0039010714285714265
aF0.001449375000000001
aF0.0004808928571428575
aF0.00014276785714285704
aF4.3392857142857146e-05
aF1.1964285714285714e-05
aF2.0535714285714286e-06
aF3.5714285714285716e-07
asa(dp16
g2
(lp17
I0
aI1
aI2
aI3
aI4
aI5
aI6
aI7
aI8
aI9
aI10
aI11
aI12
aI13
aI14
aI15
aI16
aI17
aI18
asg4
I5
sg5
(lp18
F0.28672999999999993
aF0.2577569642857144
aF0.22704839285714284
aF0.194863125
aF0.16172366071428573
aF0.12843071428571426
aF0.09599089285714285
aF0.06624857142857145
aF0.04142526785714286
aF0.023009464285714293
aF0.011251607142857145
aF0.004752410714285718
aF0.0017573214285714284
aF0.0005658035714285715
aF0.00016892857142857136
aF4.3928571428571463e-05
aF1.0267857142857142e-05
aF2.767857142857143e-06
aF5.357142857142857e-07
asa(dp19
g2
(lp20
I0
aI1
aI2
aI3
aI4
aI5
aI6
aI7
aI8
aI9
aI10
aI11
aI12
aI13
aI14
aI15
aI16
aI17
aI18
asg4
I6
sg5
(lp21
F0.2878691964285714
aF0.2587473214285714
aF0.22844026785714283
aF0.1971541071428572
aF0.16481455357142863
aF0.13244732142857144
aF0.10129419642857142
aF0.07231633928571428
aF0.04738875
aF0.028174285714285707
aF0.014882053571428563
aF0.007030714285714286
aF0.0029105357142857145
aF0.0011024107142857146
aF0.0003676785714285714
aF0.00012482142857142854
aF4.0267857142857145e-05
aF1.2232142857142856e-05
aF3.0357142857142856e-06
asa.