(lp0
(dp1
S'snrs'
p2
(lp3
I0
aI1
aI2
aI3
aI4
aI5
aI6
aI7
aI8
aI9
aI10
aI11
aI12
aI13
aI14
aI15
aI16
aI17
aI18
asS'legend'
p4
S'Laurent'
p5
sS'bers'
p6
(lp7
F0.2373564732142857
aF0.204671875
aF0.1717390625
aF0.13949419642857142
aF0.10877388392857143
aF0.08097611607142857
aF0.05673995535714286
aF0.0372921875
aF0.022387276785714286
aF0.012146428571428572
aF0.005819419642857143
aF0.0023979910714285713
aF0.0008290178571428572
aF0.0002296875
aF4.910714285714286e-05
aF6.0267857142857145e-06
aF6.696428571428571e-07
aF0.0
aF0.0
asa(dp8
g2
g3
sg4
S'Projektion'
p9
sg6
(lp10
F0.2395138392857143
aF0.2058125
aF0.17154129464285714
aF0.1377502232142857
aF0.10641517857142857
aF0.07804352678571429
aF0.05385803571428571
aF0.03457366071428571
aF0.02029419642857143
aF0.010686607142857144
aF0.004942633928571428
aF0.00193125
aF0.0006377232142857143
aF0.00015267857142857143
aF2.8348214285714285e-05
aF4.910714285714285e-06
aF0.0
aF0.0
aF0.0
asa(dp11
g2
g3
sg4
S'Gauss'
p12
sg6
(lp13
F0.23702834821428573
aF0.20408794642857142
aF0.1699029017857143
aF0.13762120535714287
aF0.10637388392857143
aF0.078403125
aF0.05457767857142857
aF0.03548616071428572
aF0.020942410714285715
aF0.0110875
aF0.005217633928571428
aF0.002057142857142857
aF0.0006828125
aF0.00018571428571428572
aF3.5044642857142856e-05
aF4.241071428571429e-06
aF2.232142857142857e-07
aF2.232142857142857e-07
aF0.0
asa(dp14
g2
g3
sg4
S'Wurzel-Nyquist'
p15
sg6
(lp16
F0.2540676339285714
aF0.21750535714285715
aF0.18147388392857142
aF0.14493191964285715
aF0.11082254464285714
aF0.080521875
aF0.05480401785714286
aF0.034681696428571426
aF0.0199046875
aF0.010139955357142858
aF0.004515848214285714
aF0.0016828125
aF0.0004948660714285714
aF0.00011785714285714286
aF1.674107142857143e-05
aF1.7857142857142857e-06
aF4.464285714285714e-07
aF0.0
aF0.0
asa.