(dp1
S'diff'
p2
S'diff --git a/src/INSTALL b/src/INSTALL\nindex 7d1c323..a1e89e1 100644\n--- a/src/INSTALL\n+++ b/src/INSTALL\n@@ -1,8 +1,8 @@\n Installation Instructions\n *************************\n \n-Copyright (C) 1994, 1995, 1996, 1999, 2000, 2001, 2002, 2004, 2005,\n-2006, 2007, 2008, 2009 Free Software Foundation, Inc.\n+Copyright (C) 1994-1996, 1999-2002, 2004-2011 Free Software Foundation,\n+Inc.\n \n    Copying and distribution of this file, with or without modification,\n are permitted in any medium without royalty provided the copyright\n@@ -226,6 +226,11 @@ order to use an ANSI C compiler:\n \n and if that doesn\'t work, install pre-built binaries of GCC for HP-UX.\n \n+   HP-UX `make\' updates targets which have the same time stamps as\n+their prerequisites, which makes it generally unusable when shipped\n+generated files such as `configure\' are involved.  Use GNU `make\'\n+instead.\n+\n    On OSF/1 a.k.a. Tru64, some versions of the default C compiler cannot\n parse its `<wchar.h>\' header file.  The option `-nodtk\' can be used as\n a workaround.  If GNU CC is not installed, it is therefore recommended\ndiff --git a/src/config.guess b/src/config.guess\nindex 40eaed4..d622a44 100755\n--- a/src/config.guess\n+++ b/src/config.guess\n@@ -2,9 +2,9 @@\n # Attempt to guess a canonical system name.\n #   Copyright (C) 1992, 1993, 1994, 1995, 1996, 1997, 1998, 1999,\n #   2000, 2001, 2002, 2003, 2004, 2005, 2006, 2007, 2008, 2009, 2010,\n-#   2011 Free Software Foundation, Inc.\n+#   2011, 2012 Free Software Foundation, Inc.\n \n-timestamp=\'2011-05-11\'\n+timestamp=\'2012-02-10\'\n \n # This file is free software; you can redistribute it and/or modify it\n # under the terms of the GNU General Public License as published by\n@@ -17,9 +17,7 @@ timestamp=\'2011-05-11\'\n # General Public License for more details.\n #\n # You should have received a copy of the GNU General Public License\n-# along with this program; if not, write to the Free Software\n-# Foundation, Inc., 51 Franklin Street - Fifth Floor, Boston, MA\n-# 02110-1301, USA.\n+# along with this program; if not, see <http://www.gnu.org/licenses/>.\n #\n # As a special exception to the GNU General Public License, if you\n # distribute this file as part of a program that contains a\n@@ -57,8 +55,8 @@ GNU config.guess ($timestamp)\n \n Originally written by Per Bothner.\n Copyright (C) 1992, 1993, 1994, 1995, 1996, 1997, 1998, 1999, 2000,\n-2001, 2002, 2003, 2004, 2005, 2006, 2007, 2008, 2009, 2010, 2011 Free\n-Software Foundation, Inc.\n+2001, 2002, 2003, 2004, 2005, 2006, 2007, 2008, 2009, 2010, 2011, 2012\n+Free Software Foundation, Inc.\n \n This is free software; see the source for copying conditions.  There is NO\n warranty; not even for MERCHANTABILITY or FITNESS FOR A PARTICULAR PURPOSE."\n@@ -145,7 +143,7 @@ UNAME_VERSION=`(uname -v) 2>/dev/null` || UNAME_VERSION=unknown\n case "${UNAME_MACHINE}:${UNAME_SYSTEM}:${UNAME_RELEASE}:${UNAME_VERSION}" in\n     *:NetBSD:*:*)\n \t# NetBSD (nbsd) targets should (where applicable) match one or\n-\t# more of the tupples: *-*-netbsdelf*, *-*-netbsdaout*,\n+\t# more of the tuples: *-*-netbsdelf*, *-*-netbsdaout*,\n \t# *-*-netbsdecoff* and *-*-netbsd*.  For targets that recently\n \t# switched to ELF, *-*-netbsd* would select the old\n \t# object file format.  This provides both forward\n@@ -792,13 +790,12 @@ EOF\n \techo ${UNAME_MACHINE}-unknown-bsdi${UNAME_RELEASE}\n \texit ;;\n     *:FreeBSD:*:*)\n-\tcase ${UNAME_MACHINE} in\n-\t    pc98)\n-\t\techo i386-unknown-freebsd`echo ${UNAME_RELEASE}|sed -e \'s/[-(].*//\'` ;;\n+\tUNAME_PROCESSOR=`/usr/bin/uname -p`\n+\tcase ${UNAME_PROCESSOR} in\n \t    amd64)\n \t\techo x86_64-unknown-freebsd`echo ${UNAME_RELEASE}|sed -e \'s/[-(].*//\'` ;;\n \t    *)\n-\t\techo ${UNAME_MACHINE}-unknown-freebsd`echo ${UNAME_RELEASE}|sed -e \'s/[-(].*//\'` ;;\n+\t\techo ${UNAME_PROCESSOR}-unknown-freebsd`echo ${UNAME_RELEASE}|sed -e \'s/[-(].*//\'` ;;\n \tesac\n \texit ;;\n     i*:CYGWIN*:*)\n@@ -807,6 +804,9 @@ EOF\n     *:MINGW*:*)\n \techo ${UNAME_MACHINE}-pc-mingw32\n \texit ;;\n+    i*:MSYS*:*)\n+\techo ${UNAME_MACHINE}-pc-msys\n+\texit ;;\n     i*:windows32*:*)\n \t# uname -m includes "-pc" on this system.\n \techo ${UNAME_MACHINE}-mingw32\n@@ -861,6 +861,13 @@ EOF\n     i*86:Minix:*:*)\n \techo ${UNAME_MACHINE}-pc-minix\n \texit ;;\n+    aarch64:Linux:*:*)\n+\techo ${UNAME_MACHINE}-unknown-linux-gnu\n+\texit ;;\n+    aarch64_be:Linux:*:*)\n+\tUNAME_MACHINE=aarch64_be\n+\techo ${UNAME_MACHINE}-unknown-linux-gnu\n+\texit ;;\n     alpha:Linux:*:*)\n \tcase `sed -n \'/^cpu model/s/^.*: \\(.*\\)/\\1/p\' < /proc/cpuinfo` in\n \t  EV5)   UNAME_MACHINE=alphaev5 ;;\n@@ -895,13 +902,16 @@ EOF\n \techo ${UNAME_MACHINE}-unknown-linux-gnu\n \texit ;;\n     cris:Linux:*:*)\n-\techo cris-axis-linux-gnu\n+\techo ${UNAME_MACHINE}-axis-linux-gnu\n \texit ;;\n     crisv32:Linux:*:*)\n-\techo crisv32-axis-linux-gnu\n+\techo ${UNAME_MACHINE}-axis-linux-gnu\n \texit ;;\n     frv:Linux:*:*)\n-\techo frv-unknown-linux-gnu\n+\techo ${UNAME_MACHINE}-unknown-linux-gnu\n+\texit ;;\n+    hexagon:Linux:*:*)\n+\techo ${UNAME_MACHINE}-unknown-linux-gnu\n \texit ;;\n     i*86:Linux:*:*)\n \tLIBC=gnu\n@@ -943,7 +953,7 @@ EOF\n \ttest x"${CPU}" != x && { echo "${CPU}-unknown-linux-gnu"; exit; }\n \t;;\n     or32:Linux:*:*)\n-\techo or32-unknown-linux-gnu\n+\techo ${UNAME_MACHINE}-unknown-linux-gnu\n \texit ;;\n     padre:Linux:*:*)\n \techo sparc-unknown-linux-gnu\n@@ -978,13 +988,13 @@ EOF\n \techo ${UNAME_MACHINE}-unknown-linux-gnu\n \texit ;;\n     tile*:Linux:*:*)\n-\techo ${UNAME_MACHINE}-tilera-linux-gnu\n+\techo ${UNAME_MACHINE}-unknown-linux-gnu\n \texit ;;\n     vax:Linux:*:*)\n \techo ${UNAME_MACHINE}-dec-linux-gnu\n \texit ;;\n     x86_64:Linux:*:*)\n-\techo x86_64-unknown-linux-gnu\n+\techo ${UNAME_MACHINE}-unknown-linux-gnu\n \texit ;;\n     xtensa*:Linux:*:*)\n \techo ${UNAME_MACHINE}-unknown-linux-gnu\n@@ -1315,6 +1325,9 @@ EOF\n     i*86:AROS:*:*)\n \techo ${UNAME_MACHINE}-pc-aros\n \texit ;;\n+    x86_64:VMkernel:*:*)\n+\techo ${UNAME_MACHINE}-unknown-esx\n+\texit ;;\n esac\n \n #echo \'(No uname command or uname output not recognized.)\' 1>&2\ndiff --git a/src/config.sub b/src/config.sub\nindex 30fdca8..c894da4 100755\n--- a/src/config.sub\n+++ b/src/config.sub\n@@ -2,9 +2,9 @@\n # Configuration validation subroutine script.\n #   Copyright (C) 1992, 1993, 1994, 1995, 1996, 1997, 1998, 1999,\n #   2000, 2001, 2002, 2003, 2004, 2005, 2006, 2007, 2008, 2009, 2010,\n-#   2011 Free Software Foundation, Inc.\n+#   2011, 2012 Free Software Foundation, Inc.\n \n-timestamp=\'2011-03-23\'\n+timestamp=\'2012-02-10\'\n \n # This file is (in principle) common to ALL GNU software.\n # The presence of a machine in this file suggests that SOME GNU software\n@@ -21,9 +21,7 @@ timestamp=\'2011-03-23\'\n # GNU General Public License for more details.\n #\n # You should have received a copy of the GNU General Public License\n-# along with this program; if not, write to the Free Software\n-# Foundation, Inc., 51 Franklin Street - Fifth Floor, Boston, MA\n-# 02110-1301, USA.\n+# along with this program; if not, see <http://www.gnu.org/licenses/>.\n #\n # As a special exception to the GNU General Public License, if you\n # distribute this file as part of a program that contains a\n@@ -76,8 +74,8 @@ version="\\\n GNU config.sub ($timestamp)\n \n Copyright (C) 1992, 1993, 1994, 1995, 1996, 1997, 1998, 1999, 2000,\n-2001, 2002, 2003, 2004, 2005, 2006, 2007, 2008, 2009, 2010, 2011 Free\n-Software Foundation, Inc.\n+2001, 2002, 2003, 2004, 2005, 2006, 2007, 2008, 2009, 2010, 2011, 2012\n+Free Software Foundation, Inc.\n \n This is free software; see the source for copying conditions.  There is NO\n warranty; not even for MERCHANTABILITY or FITNESS FOR A PARTICULAR PURPOSE."\n@@ -132,6 +130,10 @@ case $maybe_os in\n     os=-$maybe_os\n     basic_machine=`echo $1 | sed \'s/^\\(.*\\)-\\([^-]*-[^-]*\\)$/\\1/\'`\n     ;;\n+  android-linux)\n+    os=-linux-android\n+    basic_machine=`echo $1 | sed \'s/^\\(.*\\)-\\([^-]*-[^-]*\\)$/\\1/\'`-unknown\n+    ;;\n   *)\n     basic_machine=`echo $1 | sed \'s/-[^-]*$//\'`\n     if [ $basic_machine != $1 ]\n@@ -247,17 +249,22 @@ case $basic_machine in\n \t# Some are omitted here because they have special meanings below.\n \t1750a | 580 \\\n \t| a29k \\\n+\t| aarch64 | aarch64_be \\\n \t| alpha | alphaev[4-8] | alphaev56 | alphaev6[78] | alphapca5[67] \\\n \t| alpha64 | alpha64ev[4-8] | alpha64ev56 | alpha64ev6[78] | alpha64pca5[67] \\\n \t| am33_2.0 \\\n \t| arc | arm | arm[bl]e | arme[lb] | armv[2345] | armv[345][lb] | avr | avr32 \\\n+        | be32 | be64 \\\n \t| bfin \\\n \t| c4x | clipper \\\n \t| d10v | d30v | dlx | dsp16xx \\\n+\t| epiphany \\\n \t| fido | fr30 | frv \\\n \t| h8300 | h8500 | hppa | hppa1.[01] | hppa2.0 | hppa2.0[nw] | hppa64 \\\n+\t| hexagon \\\n \t| i370 | i860 | i960 | ia64 \\\n \t| ip2k | iq2000 \\\n+\t| le32 | le64 \\\n \t| lm32 \\\n \t| m32c | m32r | m32rle | m68000 | m68k | m88k \\\n \t| maxq | mb | microblaze | mcore | mep | metag \\\n@@ -291,7 +298,7 @@ case $basic_machine in\n \t| pdp10 | pdp11 | pj | pjl \\\n \t| powerpc | powerpc64 | powerpc64le | powerpcle \\\n \t| pyramid \\\n-\t| rx \\\n+\t| rl78 | rx \\\n \t| score \\\n \t| sh | sh[1234] | sh[24]a | sh[24]aeb | sh[23]e | sh[34]eb | sheb | shbe | shle | sh[1234]le | sh3ele \\\n \t| sh64 | sh64le \\\n@@ -300,7 +307,7 @@ case $basic_machine in\n \t| spu \\\n \t| tahoe | tic4x | tic54x | tic55x | tic6x | tic80 | tron \\\n \t| ubicom32 \\\n-\t| v850 | v850e \\\n+\t| v850 | v850e | v850e1 | v850e2 | v850es | v850e2v3 \\\n \t| we32k \\\n \t| x86 | xc16x | xstormy16 | xtensa \\\n \t| z8k | z80)\n@@ -315,8 +322,7 @@ case $basic_machine in\n \tc6x)\n \t\tbasic_machine=tic6x-unknown\n \t\t;;\n-\tm6811 | m68hc11 | m6812 | m68hc12 | picochip)\n-\t\t# Motorola 68HC11/12.\n+\tm6811 | m68hc11 | m6812 | m68hc12 | m68hcs12x | picochip)\n \t\tbasic_machine=$basic_machine-unknown\n \t\tos=-none\n \t\t;;\n@@ -329,7 +335,10 @@ case $basic_machine in\n \tstrongarm | thumb | xscale)\n \t\tbasic_machine=arm-unknown\n \t\t;;\n-\n+\txgate)\n+\t\tbasic_machine=$basic_machine-unknown\n+\t\tos=-none\n+\t\t;;\n \txscaleeb)\n \t\tbasic_machine=armeb-unknown\n \t\t;;\n@@ -352,11 +361,13 @@ case $basic_machine in\n \t# Recognize the basic CPU types with company name.\n \t580-* \\\n \t| a29k-* \\\n+\t| aarch64-* | aarch64_be-* \\\n \t| alpha-* | alphaev[4-8]-* | alphaev56-* | alphaev6[78]-* \\\n \t| alpha64-* | alpha64ev[4-8]-* | alpha64ev56-* | alpha64ev6[78]-* \\\n \t| alphapca5[67]-* | alpha64pca5[67]-* | arc-* \\\n \t| arm-*  | armbe-* | armle-* | armeb-* | armv*-* \\\n \t| avr-* | avr32-* \\\n+\t| be32-* | be64-* \\\n \t| bfin-* | bs2000-* \\\n \t| c[123]* | c30-* | [cjt]90-* | c4x-* \\\n \t| clipper-* | craynv-* | cydra-* \\\n@@ -365,8 +376,10 @@ case $basic_machine in\n \t| f30[01]-* | f700-* | fido-* | fr30-* | frv-* | fx80-* \\\n \t| h8300-* | h8500-* \\\n \t| hppa-* | hppa1.[01]-* | hppa2.0-* | hppa2.0[nw]-* | hppa64-* \\\n+\t| hexagon-* \\\n \t| i*86-* | i860-* | i960-* | ia64-* \\\n \t| ip2k-* | iq2000-* \\\n+\t| le32-* | le64-* \\\n \t| lm32-* \\\n \t| m32c-* | m32r-* | m32rle-* \\\n \t| m68000-* | m680[012346]0-* | m68360-* | m683?2-* | m68k-* \\\n@@ -400,7 +413,7 @@ case $basic_machine in\n \t| pdp10-* | pdp11-* | pj-* | pjl-* | pn-* | power-* \\\n \t| powerpc-* | powerpc64-* | powerpc64le-* | powerpcle-* \\\n \t| pyramid-* \\\n-\t| romp-* | rs6000-* | rx-* \\\n+\t| rl78-* | romp-* | rs6000-* | rx-* \\\n \t| sh-* | sh[1234]-* | sh[24]a-* | sh[24]aeb-* | sh[23]e-* | sh[34]eb-* | sheb-* | shbe-* \\\n \t| shle-* | sh[1234]le-* | sh3ele-* | sh64-* | sh64le-* \\\n \t| sparc-* | sparc64-* | sparc64b-* | sparc64v-* | sparc86x-* | sparclet-* \\\n@@ -408,10 +421,11 @@ case $basic_machine in\n \t| sparcv8-* | sparcv9-* | sparcv9b-* | sparcv9v-* | sv1-* | sx?-* \\\n \t| tahoe-* \\\n \t| tic30-* | tic4x-* | tic54x-* | tic55x-* | tic6x-* | tic80-* \\\n-\t| tile-* | tilegx-* \\\n+\t| tile*-* \\\n \t| tron-* \\\n \t| ubicom32-* \\\n-\t| v850-* | v850e-* | vax-* \\\n+\t| v850-* | v850e-* | v850e1-* | v850es-* | v850e2-* | v850e2v3-* \\\n+\t| vax-* \\\n \t| we32k-* \\\n \t| x86-* | x86_64-* | xc16x-* | xps100-* \\\n \t| xstormy16-* | xtensa*-* \\\n@@ -711,7 +725,6 @@ case $basic_machine in\n \ti370-ibm* | ibm*)\n \t\tbasic_machine=i370-ibm\n \t\t;;\n-# I\'m not sure what "Sysv32" means.  Should this be sysv3.2?\n \ti*86v32)\n \t\tbasic_machine=`echo $1 | sed -e \'s/86.*/86-pc/\'`\n \t\tos=-sysv32\n@@ -808,10 +821,18 @@ case $basic_machine in\n \tms1-*)\n \t\tbasic_machine=`echo $basic_machine | sed -e \'s/ms1-/mt-/\'`\n \t\t;;\n+\tmsys)\n+\t\tbasic_machine=i386-pc\n+\t\tos=-msys\n+\t\t;;\n \tmvs)\n \t\tbasic_machine=i370-ibm\n \t\tos=-mvs\n \t\t;;\n+\tnacl)\n+\t\tbasic_machine=le32-unknown\n+\t\tos=-nacl\n+\t\t;;\n \tncr3000)\n \t\tbasic_machine=i486-ncr\n \t\tos=-sysv4\n@@ -1120,13 +1141,8 @@ case $basic_machine in\n \t\tbasic_machine=t90-cray\n \t\tos=-unicos\n \t\t;;\n-\t# This must be matched before tile*.\n-\ttilegx*)\n-\t\tbasic_machine=tilegx-unknown\n-\t\tos=-linux-gnu\n-\t\t;;\n \ttile*)\n-\t\tbasic_machine=tile-unknown\n+\t\tbasic_machine=$basic_machine-unknown\n \t\tos=-linux-gnu\n \t\t;;\n \ttx39)\n@@ -1336,7 +1352,7 @@ case $os in\n \t      | -ptx* | -coff* | -ecoff* | -winnt* | -domain* | -vsta* \\\n \t      | -udi* | -eabi* | -lites* | -ieee* | -go32* | -aux* \\\n \t      | -chorusos* | -chorusrdb* | -cegcc* \\\n-\t      | -cygwin* | -pe* | -psos* | -moss* | -proelf* | -rtems* \\\n+\t      | -cygwin* | -msys* | -pe* | -psos* | -moss* | -proelf* | -rtems* \\\n \t      | -mingw32* | -linux-gnu* | -linux-android* \\\n \t      | -linux-newlib* | -linux-uclibc* \\\n \t      | -uxpv* | -beos* | -mpeix* | -udk* \\\n@@ -1548,9 +1564,6 @@ case $basic_machine in\n \t\t;;\n \tm68000-sun)\n \t\tos=-sunos3\n-\t\t# This also exists in the configure program, but was not the\n-\t\t# default.\n-\t\t# os=-sunos4\n \t\t;;\n \tm68*-cisco)\n \t\tos=-aout\ndiff --git a/src/python/testapp.py b/src/python/testapp.py\nindex 5583d5a..2cc35d3 100755\n--- a/src/python/testapp.py\n+++ b/src/python/testapp.py\n@@ -241,7 +241,7 @@ if __name__=="__main__":\n               #  plt = berplot2(data, "Entzerrertest", True, cmdline=False)            \n             \n             save(action)\n-            plt = berplot2(data, "Entzerrertest", False, cmdline=True)            \n+            plt = berplot2(data, "Entzerrertest", False, cmdline=False)            \n             save(action)\n \n \n'
p3
sS'version'
p4
S'v0.9-11-g2ba84b3\n'
p5
sS'data'
p6
(lp7
(dp8
S'snrs'
p9
(lp10
I0
aI1
aI2
aI3
aI4
aI5
aI6
aI7
aI8
aI9
aI10
aI11
aI12
aI13
aI14
aI15
aI16
aI17
aI18
asS'bers'
p11
(lp12
F0.25717499999999999
aF0.22111428571428571
aF0.18438125
aF0.14830178571428571
aF0.11431428571428572
aF0.083411607142857142
aF0.057154464285714288
aF0.036616071428571428
aF0.020836607142857143
aF0.010682142857142857
aF0.0047866071428571428
aF0.0018419642857142858
aF0.00054910714285714285
aF0.00011785714285714286
aF1.6964285714285715e-05
aF1.7857142857142857e-06
aF0
aF0
aF0
asa(dp13
g9
(lp14
I0
aI1
aI2
aI3
aI4
aI5
aI6
aI7
aI8
aI9
aI10
aI11
aI12
aI13
aI14
aI15
aI16
aI17
aI18
asg11
(lp15
F0.25618571428571429
aF0.22041607142857142
aF0.18358035714285714
aF0.14737589285714287
aF0.11345892857142857
aF0.082881250000000004
aF0.0565125
aF0.035691964285714285
aF0.020400892857142857
aF0.010492857142857142
aF0.0047883928571428574
aF0.0018187500000000001
aF0.00054107142857142852
aF0.00012232142857142856
aF1.6071428571428572e-05
aF5.357142857142857e-06
aF0
aF0
aF0
asa(dp16
g9
(lp17
I0
aI1
aI2
aI3
aI4
aI5
aI6
aI7
aI8
aI9
aI10
aI11
aI12
aI13
aI14
aI15
aI16
aI17
aI18
asg11
(lp18
F0.2539839285714286
aF0.218225
aF0.18208303571428572
aF0.14586874999999999
aF0.11248303571428571
aF0.081593750000000007
aF0.056239285714285714
aF0.035263392857142854
aF0.020330357142857143
aF0.010340178571428571
aF0.0047196428571428571
aF0.0017973214285714285
aF0.00050714285714285716
aF0.00013035714285714286
aF2.7678571428571428e-05
aF0
aF8.9285714285714284e-07
aF0
aF0
asa(dp19
g9
(lp20
I0
aI1
aI2
aI3
aI4
aI5
aI6
aI7
aI8
aI9
aI10
aI11
aI12
aI13
aI14
aI15
aI16
aI17
aI18
asg11
(lp21
F0.25467232142857144
aF0.21887142857142858
aF0.18222589285714286
aF0.14609464285714285
aF0.11145357142857143
aF0.081264285714285719
aF0.055042857142857143
aF0.034986607142857146
aF0.020535714285714286
aF0.010608035714285714
aF0.0046464285714285713
aF0.0017348214285714287
aF0.00053839285714285718
aF0.00012232142857142856
aF1.9642857142857142e-05
aF4.4642857142857146e-06
aF0
aF0
aF0
asa(dp22
g9
(lp23
I0
aI1
aI2
aI3
aI4
aI5
aI6
aI7
aI8
aI9
aI10
aI11
aI12
aI13
aI14
aI15
aI16
aI17
aI18
asg11
(lp24
F0.25535089285714285
aF0.21951160714285714
aF0.18279196428571429
aF0.1467125
aF0.11149375
aF0.080943749999999995
aF0.055610714285714284
aF0.035045535714285717
aF0.020095535714285715
aF0.010337499999999999
aF0.0047000000000000002
aF0.0017580357142857144
aF0.00054910714285714285
aF0.00014285714285714287
aF2.7678571428571428e-05
aF1.7857142857142857e-06
aF0
aF0
aF0
asa(dp25
g9
(lp26
I0
aI1
aI2
aI3
aI4
aI5
aI6
aI7
aI8
aI9
aI10
aI11
aI12
aI13
aI14
aI15
aI16
aI17
aI18
asg11
(lp27
F0.25550624999999999
aF0.21934017857142857
aF0.18257499999999999
aF0.14618125000000001
aF0.11181428571428571
aF0.081300892857142856
aF0.055861607142857143
aF0.035306249999999997
aF0.020209821428571428
aF0.010337499999999999
aF0.0046874999999999998
aF0.00175
aF0.00052946428571428567
aF0.00012589285714285713
aF1.6964285714285715e-05
aF3.5714285714285714e-06
aF0
aF0
aF0
asa(dp28
g9
(lp29
I0
aI1
aI2
aI3
aI4
aI5
aI6
aI7
aI8
aI9
aI10
aI11
aI12
aI13
aI14
aI15
aI16
aI17
aI18
asg11
(lp30
F0.25631517857142855
aF0.22048392857142857
aF0.18343571428571429
aF0.1472080357142857
aF0.11306696428571429
aF0.082569642857142855
aF0.056279464285714287
aF0.035736607142857139
aF0.020874107142857142
aF0.010578571428571429
aF0.004775892857142857
aF0.0017758928571428572
aF0.00054732142857142859
aF0.00011339285714285714
aF2.3214285714285715e-05
aF1.7857142857142857e-06
aF0
aF0
aF0
asa(dp31
g9
(lp32
I0
aI1
aI2
aI3
aI4
aI5
aI6
aI7
aI8
aI9
aI10
aI11
aI12
aI13
aI14
aI15
aI16
aI17
aI18
asg11
(lp33
F0.25640089285714285
aF0.22026607142857144
aF0.18362142857142857
aF0.14738928571428572
aF0.11403928571428572
aF0.082747321428571427
aF0.056410714285714286
aF0.035868749999999998
aF0.021078571428571429
aF0.010716071428571429
aF0.0048357142857142861
aF0.0018446428571428572
aF0.00054107142857142852
aF0.00012678571428571429
aF2.1428571428571428e-05
aF4.4642857142857146e-06
aF0
aF0
aF0
asa(dp34
g9
(lp35
I0
aI1
aI2
aI3
aI4
aI5
aI6
aI7
aI8
aI9
aI10
aI11
aI12
aI13
aI14
aI15
aI16
aI17
aI18
asg11
(lp36
F0.25722857142857142
aF0.22126428571428572
aF0.18423035714285715
aF0.1481625
aF0.11318125
aF0.082583035714285713
aF0.056608928571428574
aF0.036024107142857142
aF0.02064017857142857
aF0.010746428571428572
aF0.0048803571428571429
aF0.0018678571428571429
aF0.00059732142857142861
aF0.00013124999999999999
aF2.3214285714285715e-05
aF4.4642857142857146e-06
aF0
aF0
aF0
asasS'title'
p37
S'Synchronisation test'
p38
s.