(dp1
S'diff'
p2
S''
sS'version'
p3
S'v0.9-14-gd2ba6f8\n'
p4
sS'data'
p5
(lp6
(dp7
S'snrs'
p8
(lp9
I12
aI13
aI14
aI15
aI16
aI17
aI18
aI19
aI20
asS'legend'
p10
I5
sS'bers'
p11
(lp12
F0.006846428571428571
aF0.0029205357142857145
aF0.0011366071428571428
aF0.00038392857142857141
aF0.00016964285714285714
aF6.7857142857142861e-05
aF1.3392857142857142e-05
aF3.5714285714285714e-06
aF2.6785714285714285e-06
asa(dp13
g8
(lp14
I12
aI13
aI14
aI15
aI16
aI17
aI18
aI19
aI20
asg10
I6
sg11
(lp15
F0.0050508928571428571
aF0.0020160714285714287
aF0.00064464285714285719
aF0.00017589285714285716
aF7.321428571428572e-05
aF3.1250000000000001e-05
aF1.3392857142857142e-05
aF0
aF4.4642857142857146e-06
asa(dp16
g8
(lp17
I12
aI13
aI14
aI15
aI16
aI17
aI18
aI19
aI20
asg10
I7
sg11
(lp18
F0.0037991071428571427
aF0.0014080357142857143
aF0.00040446428571428572
aF0.0001125
aF4.375e-05
aF2.2321428571428571e-05
aF0
aF0
aF0
asa(dp19
g8
(lp20
I12
aI13
aI14
aI15
aI16
aI17
aI18
aI19
aI20
asg10
I8
sg11
(lp21
F0.0029937499999999999
aF0.0010571428571428572
aF0.00035535714285714288
aF0.00012232142857142856
aF9.8214285714285708e-06
aF1.7857142857142857e-06
aF0
aF0
aF0
asa(dp22
g8
(lp23
I12
aI13
aI14
aI15
aI16
aI17
aI18
aI19
aI20
asg10
I9
sg11
(lp24
F0.0031687500000000001
aF0.0011000000000000001
aF0.00036249999999999998
aF7.2321428571428577e-05
aF2.1428571428571428e-05
aF6.2500000000000003e-06
aF8.9285714285714292e-06
aF0
aF0
asa(dp25
g8
(lp26
I12
aI13
aI14
aI15
aI16
aI17
aI18
aI19
aI20
asg10
I10
sg11
(lp27
F0.0037455357142857143
aF0.0013946428571428571
aF0.000475
aF0.00019642857142857144
aF3.2142857142857144e-05
aF2.6785714285714285e-06
aF0
aF0
aF0
asa(dp28
g8
(lp29
I12
aI13
aI14
aI15
aI16
aI17
aI18
aI19
aI20
asg10
I11
sg11
(lp30
F0.0051955357142857142
aF0.0021464285714285713
aF0.00069285714285714285
aF0.00022946428571428572
aF6.0714285714285715e-05
aF1.0714285714285714e-05
aF5.357142857142857e-06
aF0
aF0
asasS'title'
p31
S'Synchronisation test'
p32
s.